; Function Attrs: nofree norecurse nosync nounwind memory(readwrite, inaccessiblemem: none) uwtable
define internal void @mix8to2_s16(ptr noundef readonly captures(none) %0, ptr noundef readonly captures(none) %1, ptr noundef readonly captures(none) %2, i32 noundef %3) #9 {
  %5 = icmp sgt i32 %3, 0
  br i1 %5, label %.lr.ph, label %._crit_edge

.lr.ph:                                           ; preds = %4
  %6 = getelementptr inbounds nuw i8, ptr %1, i64 16
  %7 = load ptr, ptr %6, align 8, !tbaa !105
  %8 = getelementptr inbounds nuw i8, ptr %2, i64 8
  %9 = load i32, ptr %8, align 4, !tbaa !34
  %10 = getelementptr inbounds nuw i8, ptr %1, i64 24
  %11 = load ptr, ptr %10, align 8, !tbaa !105
  %12 = getelementptr inbounds nuw i8, ptr %2, i64 12
  %13 = load i32, ptr %12, align 4, !tbaa !34
  %14 = load ptr, ptr %1, align 8, !tbaa !105
  %15 = load i32, ptr %2, align 4, !tbaa !34
  %16 = getelementptr inbounds nuw i8, ptr %1, i64 32
  %17 = load ptr, ptr %16, align 8, !tbaa !105
  %18 = getelementptr inbounds nuw i8, ptr %2, i64 16
  %19 = load i32, ptr %18, align 4, !tbaa !34
  %20 = getelementptr inbounds nuw i8, ptr %1, i64 48
  %21 = load ptr, ptr %20, align 8, !tbaa !105
  %22 = getelementptr inbounds nuw i8, ptr %2, i64 24
  %23 = load i32, ptr %22, align 4, !tbaa !34
  %24 = load ptr, ptr %0, align 8, !tbaa !105
  %25 = getelementptr inbounds nuw i8, ptr %1, i64 8
  %26 = load ptr, ptr %25, align 8, !tbaa !105
  %27 = getelementptr inbounds nuw i8, ptr %2, i64 36
  %28 = load i32, ptr %27, align 4, !tbaa !34
  %29 = getelementptr inbounds nuw i8, ptr %1, i64 40
  %30 = load ptr, ptr %29, align 8, !tbaa !105
  %31 = getelementptr inbounds nuw i8, ptr %2, i64 52
  %32 = load i32, ptr %31, align 4, !tbaa !34
  %33 = getelementptr inbounds nuw i8, ptr %1, i64 56
  %34 = load ptr, ptr %33, align 8, !tbaa !105
  %35 = getelementptr inbounds nuw i8, ptr %2, i64 60
  %36 = load i32, ptr %35, align 4, !tbaa !34
  %37 = getelementptr inbounds nuw i8, ptr %0, i64 8
  %38 = load ptr, ptr %37, align 8, !tbaa !105
  %wide.trip.count = zext nneg i32 %3 to i64
  br label %39

39:                                               ; preds = %.lr.ph, %39
  %indvars.iv = phi i64 [ 0, %.lr.ph ], [ %indvars.iv.next, %39 ]
  %40 = getelementptr inbounds nuw i16, ptr %7, i64 %indvars.iv
  %41 = load i16, ptr %40, align 2, !tbaa !76
  %42 = sext i16 %41 to i32
  %43 = mul nsw i32 %9, %42
  %44 = getelementptr inbounds nuw i16, ptr %11, i64 %indvars.iv
  %45 = load i16, ptr %44, align 2, !tbaa !76
  %46 = sext i16 %45 to i32
  %47 = mul nsw i32 %13, %46
  %48 = add nsw i32 %47, %43
  %49 = getelementptr inbounds nuw i16, ptr %14, i64 %indvars.iv
  %50 = load i16, ptr %49, align 2, !tbaa !76
  %51 = sext i16 %50 to i32
  %52 = mul nsw i32 %15, %51
  %53 = getelementptr inbounds nuw i16, ptr %17, i64 %indvars.iv
  %54 = load i16, ptr %53, align 2, !tbaa !76
  %55 = sext i16 %54 to i32
  %56 = mul nsw i32 %19, %55
  %57 = getelementptr inbounds nuw i16, ptr %21, i64 %indvars.iv
  %58 = load i16, ptr %57, align 2, !tbaa !76
  %59 = sext i16 %58 to i32
  %60 = mul nsw i32 %23, %59
  %61 = add i32 %48, 16384
  %62 = add i32 %61, %52
  %63 = add i32 %62, %56
  %64 = add i32 %63, %60
  %65 = lshr i32 %64, 15
  %66 = trunc i32 %65 to i16
  %67 = getelementptr inbounds nuw i16, ptr %24, i64 %indvars.iv
  store i16 %66, ptr %67, align 2, !tbaa !76
  %68 = getelementptr inbounds nuw i16, ptr %26, i64 %indvars.iv
  %69 = load i16, ptr %68, align 2, !tbaa !76
  %70 = sext i16 %69 to i32
  %71 = mul nsw i32 %28, %70
  %72 = getelementptr inbounds nuw i16, ptr %30, i64 %indvars.iv
  %73 = load i16, ptr %72, align 2, !tbaa !76
  %74 = sext i16 %73 to i32
  %75 = mul nsw i32 %32, %74
  %76 = getelementptr inbounds nuw i16, ptr %34, i64 %indvars.iv
  %77 = load i16, ptr %76, align 2, !tbaa !76
  %78 = sext i16 %77 to i32
  %79 = mul nsw i32 %36, %78
  %80 = add i32 %61, %71
  %81 = add i32 %80, %75
  %82 = add i32 %81, %79
  %83 = lshr i32 %82, 15
  %84 = trunc i32 %83 to i16
  %85 = getelementptr inbounds nuw i16, ptr %38, i64 %indvars.iv
  store i16 %84, ptr %85, align 2, !tbaa !76
  %indvars.iv.next = add nuw nsw i64 %indvars.iv, 1
  %exitcond.not = icmp eq i64 %indvars.iv.next, %wide.trip.count
  br i1 %exitcond.not, label %._crit_edge, label %39, !llvm.loop !108

._crit_edge:                                      ; preds = %39, %4
  ret void
}